target datalayout = "e-m:e-p270:32:32-p271:32:32-p272:64:64-i64:64-i128:128-f80:128-n8:16:32:64-S128"
target triple = "x86_64-unknown-linux-gnu"

; Function Attrs: mustprogress nounwind uwtable
define linkonce_odr void @_ZN18OpenImageIO_v2_6_09ImageSpec11auto_strideERlS1_S1_liii(ptr noundef nonnull align 8 dereferenceable(8) %xstride, ptr noundef nonnull align 8 dereferenceable(8) %ystride, ptr noundef nonnull align 8 dereferenceable(8) %zstride, i64 noundef %channelsize, i32 noundef %nchannels, i32 noundef %width, i32 noundef %height) #4 comdat align 2 {
entry:
  %xstride.addr = alloca ptr, align 8
  %ystride.addr = alloca ptr, align 8
  %zstride.addr = alloca ptr, align 8
  %channelsize.addr = alloca i64, align 8
  %nchannels.addr = alloca i32, align 4
  %width.addr = alloca i32, align 4
  %height.addr = alloca i32, align 4
  store ptr %xstride, ptr %xstride.addr, align 8
  store ptr %ystride, ptr %ystride.addr, align 8
  store ptr %zstride, ptr %zstride.addr, align 8
  store i64 %channelsize, ptr %channelsize.addr, align 8
  store i32 %nchannels, ptr %nchannels.addr, align 4
  store i32 %width, ptr %width.addr, align 4
  store i32 %height, ptr %height.addr, align 4
  %0 = load ptr, ptr %xstride.addr, align 8
  %1 = load i64, ptr %0, align 8
  %cmp = icmp eq i64 %1, -9223372036854775808
  br i1 %cmp, label %if.then, label %if.end

if.then:                                          ; preds = %entry
  %2 = load i32, ptr %nchannels.addr, align 4
  %conv = sext i32 %2 to i64
  %3 = load i64, ptr %channelsize.addr, align 8
  %mul = mul nsw i64 %conv, %3
  %4 = load ptr, ptr %xstride.addr, align 8
  store i64 %mul, ptr %4, align 8
  br label %if.end

if.end:                                           ; preds = %if.then, %entry
  %5 = load ptr, ptr %ystride.addr, align 8
  %6 = load i64, ptr %5, align 8
  %cmp1 = icmp eq i64 %6, -9223372036854775808
  br i1 %cmp1, label %if.then2, label %if.end5

if.then2:                                         ; preds = %if.end
  %7 = load ptr, ptr %xstride.addr, align 8
  %8 = load i64, ptr %7, align 8
  %9 = load i32, ptr %width.addr, align 4
  %conv3 = sext i32 %9 to i64
  %mul4 = mul nsw i64 %8, %conv3
  %10 = load ptr, ptr %ystride.addr, align 8
  store i64 %mul4, ptr %10, align 8
  br label %if.end5

if.end5:                                          ; preds = %if.then2, %if.end
  %11 = load ptr, ptr %zstride.addr, align 8
  %12 = load i64, ptr %11, align 8
  %cmp6 = icmp eq i64 %12, -9223372036854775808
  br i1 %cmp6, label %if.then7, label %if.end10

if.then7:                                         ; preds = %if.end5
  %13 = load ptr, ptr %ystride.addr, align 8
  %14 = load i64, ptr %13, align 8
  %15 = load i32, ptr %height.addr, align 4
  %conv8 = sext i32 %15 to i64
  %mul9 = mul nsw i64 %14, %conv8
  %16 = load ptr, ptr %zstride.addr, align 8
  store i64 %mul9, ptr %16, align 8
  br label %if.end10

if.end10:                                         ; preds = %if.then7, %if.end5
  ret void
}

; Function Attrs: mustprogress nounwind uwtable
define noundef zeroext i1 @_ZN18OpenImageIO_v2_6_010copy_imageEiiiiPKvllllPvlll(i32 noundef %nchannels, i32 noundef %width, i32 noundef %height, i32 noundef %depth, ptr noundef %src, i64 noundef %pixelsize, i64 noundef %src_xstride, i64 noundef %src_ystride, i64 noundef %src_zstride, ptr noundef %dst, i64 noundef %dst_xstride, i64 noundef %dst_ystride, i64 noundef %dst_zstride) #4 {
entry:
  %nchannels.addr = alloca i32, align 4
  %width.addr = alloca i32, align 4
  %height.addr = alloca i32, align 4
  %depth.addr = alloca i32, align 4
  %src.addr = alloca ptr, align 8
  %pixelsize.addr = alloca i64, align 8
  %src_xstride.addr = alloca i64, align 8
  %src_ystride.addr = alloca i64, align 8
  %src_zstride.addr = alloca i64, align 8
  %dst.addr = alloca ptr, align 8
  %dst_xstride.addr = alloca i64, align 8
  %dst_ystride.addr = alloca i64, align 8
  %dst_zstride.addr = alloca i64, align 8
  %channelsize = alloca i64, align 8
  %contig = alloca i8, align 1
  %z = alloca i32, align 4
  %y = alloca i32, align 4
  %f = alloca ptr, align 8
  %t = alloca ptr, align 8
  %x = alloca i32, align 4
  store i32 %nchannels, ptr %nchannels.addr, align 4
  store i32 %width, ptr %width.addr, align 4
  store i32 %height, ptr %height.addr, align 4
  store i32 %depth, ptr %depth.addr, align 4
  store ptr %src, ptr %src.addr, align 8
  store i64 %pixelsize, ptr %pixelsize.addr, align 8
  store i64 %src_xstride, ptr %src_xstride.addr, align 8
  store i64 %src_ystride, ptr %src_ystride.addr, align 8
  store i64 %src_zstride, ptr %src_zstride.addr, align 8
  store ptr %dst, ptr %dst.addr, align 8
  store i64 %dst_xstride, ptr %dst_xstride.addr, align 8
  store i64 %dst_ystride, ptr %dst_ystride.addr, align 8
  store i64 %dst_zstride, ptr %dst_zstride.addr, align 8
  %0 = load i64, ptr %pixelsize.addr, align 8
  %1 = load i32, ptr %nchannels.addr, align 4
  %conv = sext i32 %1 to i64
  %div = sdiv i64 %0, %conv
  store i64 %div, ptr %channelsize, align 8
  %2 = load i64, ptr %channelsize, align 8
  %3 = load i32, ptr %nchannels.addr, align 4
  %4 = load i32, ptr %width.addr, align 4
  %5 = load i32, ptr %height.addr, align 4
  call void @_ZN18OpenImageIO_v2_6_09ImageSpec11auto_strideERlS1_S1_liii(ptr noundef nonnull align 8 dereferenceable(8) %src_xstride.addr, ptr noundef nonnull align 8 dereferenceable(8) %src_ystride.addr, ptr noundef nonnull align 8 dereferenceable(8) %src_zstride.addr, i64 noundef %2, i32 noundef %3, i32 noundef %4, i32 noundef %5) #3
  %6 = load i64, ptr %channelsize, align 8
  %7 = load i32, ptr %nchannels.addr, align 4
  %8 = load i32, ptr %width.addr, align 4
  %9 = load i32, ptr %height.addr, align 4
  call void @_ZN18OpenImageIO_v2_6_09ImageSpec11auto_strideERlS1_S1_liii(ptr noundef nonnull align 8 dereferenceable(8) %dst_xstride.addr, ptr noundef nonnull align 8 dereferenceable(8) %dst_ystride.addr, ptr noundef nonnull align 8 dereferenceable(8) %dst_zstride.addr, i64 noundef %6, i32 noundef %7, i32 noundef %8, i32 noundef %9) #3
  %10 = load i64, ptr %src_xstride.addr, align 8
  %11 = load i64, ptr %dst_xstride.addr, align 8
  %cmp = icmp eq i64 %10, %11
  br i1 %cmp, label %land.rhs, label %land.end

land.rhs:                                         ; preds = %entry
  %12 = load i64, ptr %src_xstride.addr, align 8
  %13 = load i64, ptr %pixelsize.addr, align 8
  %cmp1 = icmp eq i64 %12, %13
  br label %land.end

land.end:                                         ; preds = %land.rhs, %entry
  %14 = phi i1 [ false, %entry ], [ %cmp1, %land.rhs ]
  %frombool = zext i1 %14 to i8
  store i8 %frombool, ptr %contig, align 1
  store i32 0, ptr %z, align 4
  br label %for.cond

for.cond:                                         ; preds = %for.inc25, %land.end
  %15 = load i32, ptr %z, align 4
  %16 = load i32, ptr %depth.addr, align 4
  %cmp2 = icmp slt i32 %15, %16
  br i1 %cmp2, label %for.body, label %for.end27

for.body:                                         ; preds = %for.cond
  store i32 0, ptr %y, align 4
  br label %for.cond3

for.cond3:                                        ; preds = %for.inc22, %for.body
  %17 = load i32, ptr %y, align 4
  %18 = load i32, ptr %height.addr, align 4
  %cmp4 = icmp slt i32 %17, %18
  br i1 %cmp4, label %for.body5, label %for.end24

for.body5:                                        ; preds = %for.cond3
  %19 = load ptr, ptr %src.addr, align 8
  %20 = load i32, ptr %z, align 4
  %conv6 = sext i32 %20 to i64
  %21 = load i64, ptr %src_zstride.addr, align 8
  %mul = mul nsw i64 %conv6, %21
  %22 = load i32, ptr %y, align 4
  %conv7 = sext i32 %22 to i64
  %23 = load i64, ptr %src_ystride.addr, align 8
  %mul8 = mul nsw i64 %conv7, %23
  %add = add nsw i64 %mul, %mul8
  %add.ptr = getelementptr inbounds i8, ptr %19, i64 %add
  store ptr %add.ptr, ptr %f, align 8
  %24 = load ptr, ptr %dst.addr, align 8
  %25 = load i32, ptr %z, align 4
  %conv9 = sext i32 %25 to i64
  %26 = load i64, ptr %dst_zstride.addr, align 8
  %mul10 = mul nsw i64 %conv9, %26
  %27 = load i32, ptr %y, align 4
  %conv11 = sext i32 %27 to i64
  %28 = load i64, ptr %dst_ystride.addr, align 8
  %mul12 = mul nsw i64 %conv11, %28
  %add13 = add nsw i64 %mul10, %mul12
  %add.ptr14 = getelementptr inbounds i8, ptr %24, i64 %add13
  store ptr %add.ptr14, ptr %t, align 8
  %29 = load i8, ptr %contig, align 1
  %tobool = trunc i8 %29 to i1
  br i1 %tobool, label %if.then, label %if.else

if.then:                                          ; preds = %for.body5
  %30 = load ptr, ptr %t, align 8
  %31 = load ptr, ptr %f, align 8
  %32 = load i32, ptr %width.addr, align 4
  %conv15 = sext i32 %32 to i64
  %33 = load i64, ptr %pixelsize.addr, align 8
  %mul16 = mul nsw i64 %conv15, %33
  call void @llvm.memcpy.p0.p0.i64(ptr align 1 %30, ptr align 1 %31, i64 %mul16, i1 false)
  br label %if.end

if.else:                                          ; preds = %for.body5
  store i32 0, ptr %x, align 4
  br label %for.cond17

for.cond17:                                       ; preds = %for.inc, %if.else
  %34 = load i32, ptr %x, align 4
  %35 = load i32, ptr %width.addr, align 4
  %cmp18 = icmp slt i32 %34, %35
  br i1 %cmp18, label %for.body19, label %for.end

for.body19:                                       ; preds = %for.cond17
  %36 = load ptr, ptr %t, align 8
  %37 = load ptr, ptr %f, align 8
  %38 = load i64, ptr %pixelsize.addr, align 8
  call void @llvm.memcpy.p0.p0.i64(ptr align 1 %36, ptr align 1 %37, i64 %38, i1 false)
  %39 = load i64, ptr %src_xstride.addr, align 8
  %40 = load ptr, ptr %f, align 8
  %add.ptr20 = getelementptr inbounds i8, ptr %40, i64 %39
  store ptr %add.ptr20, ptr %f, align 8
  %41 = load i64, ptr %dst_xstride.addr, align 8
  %42 = load ptr, ptr %t, align 8
  %add.ptr21 = getelementptr inbounds i8, ptr %42, i64 %41
  store ptr %add.ptr21, ptr %t, align 8
  br label %for.inc

for.inc:                                          ; preds = %for.body19
  %43 = load i32, ptr %x, align 4
  %inc = add nsw i32 %43, 1
  store i32 %inc, ptr %x, align 4
  br label %for.cond17, !llvm.loop !48

for.end:                                          ; preds = %for.cond17
  br label %if.end

if.end:                                           ; preds = %for.end, %if.then
  br label %for.inc22

for.inc22:                                        ; preds = %if.end
  %44 = load i32, ptr %y, align 4
  %inc23 = add nsw i32 %44, 1
  store i32 %inc23, ptr %y, align 4
  br label %for.cond3, !llvm.loop !49

for.end24:                                        ; preds = %for.cond3
  br label %for.inc25

for.inc25:                                        ; preds = %for.end24
  %45 = load i32, ptr %z, align 4
  %inc26 = add nsw i32 %45, 1
  store i32 %inc26, ptr %z, align 4
  br label %for.cond, !llvm.loop !50

for.end27:                                        ; preds = %for.cond
  ret i1 true
}