; Function Attrs: mustprogress nofree norecurse nosync nounwind memory(readwrite, inaccessiblemem: none) uwtable
define noundef zeroext i1 @_ZN18OpenImageIO_v2_6_010copy_imageEiiiiPKvllllPvlll(i32 noundef %nchannels, i32 noundef %width, i32 noundef %height, i32 noundef %depth, ptr nocapture noundef readonly %src, i64 noundef %pixelsize, i64 noundef %src_xstride, i64 noundef %src_ystride, i64 noundef %src_zstride, ptr nocapture noundef writeonly %dst, i64 noundef %dst_xstride, i64 noundef %dst_ystride, i64 noundef %dst_zstride) local_unnamed_addr #17 {
entry:
  %conv = sext i32 %nchannels to i64
  %cmp.i = icmp eq i64 %src_xstride, -9223372036854775808
  %0 = srem i64 %pixelsize, %conv
  %mul.i = sub nsw i64 %pixelsize, %0
  %spec.select = select i1 %cmp.i, i64 %mul.i, i64 %src_xstride
  %cmp1.i = icmp eq i64 %src_ystride, -9223372036854775808
  %conv3.i = sext i32 %width to i64
  %mul4.i = mul nsw i64 %spec.select, %conv3.i
  %src_ystride.addr.0 = select i1 %cmp1.i, i64 %mul4.i, i64 %src_ystride
  %cmp6.i = icmp eq i64 %src_zstride, -9223372036854775808
  %conv8.i = sext i32 %height to i64
  %mul9.i = mul nsw i64 %src_ystride.addr.0, %conv8.i
  %src_zstride.addr.0 = select i1 %cmp6.i, i64 %mul9.i, i64 %src_zstride
  %cmp.i23 = icmp eq i64 %dst_xstride, -9223372036854775808
  %dst_xstride.addr.0 = select i1 %cmp.i23, i64 %mul.i, i64 %dst_xstride
  %cmp1.i25 = icmp eq i64 %dst_ystride, -9223372036854775808
  %mul4.i33 = mul nsw i64 %dst_xstride.addr.0, %conv3.i
  %dst_ystride.addr.0 = select i1 %cmp1.i25, i64 %mul4.i33, i64 %dst_ystride
  %cmp6.i27 = icmp eq i64 %dst_zstride, -9223372036854775808
  %mul9.i30 = mul nsw i64 %dst_ystride.addr.0, %conv8.i
  %dst_zstride.addr.0 = select i1 %cmp6.i27, i64 %mul9.i30, i64 %dst_zstride
  %cmp = icmp eq i64 %spec.select, %dst_xstride.addr.0
  %cmp1 = icmp eq i64 %spec.select, %pixelsize
  %1 = and i1 %cmp, %cmp1
  %cmp262 = icmp sgt i32 %depth, 0
  br i1 %cmp262, label %for.cond3.preheader.lr.ph, label %for.end27

for.cond3.preheader.lr.ph:                        ; preds = %entry
  %cmp451 = icmp sgt i32 %height, 0
  %cmp1847 = icmp sgt i32 %width, 0
  %mul16 = mul nsw i64 %conv3.i, %pixelsize
  br i1 %cmp451, label %for.cond3.preheader.lr.ph.split.us, label %for.end27

for.cond3.preheader.lr.ph.split.us:               ; preds = %for.cond3.preheader.lr.ph
  br i1 %1, label %for.cond3.preheader.us.us.preheader, label %for.cond3.preheader.lr.ph.split.us.split

for.cond3.preheader.us.us.preheader:              ; preds = %for.cond3.preheader.lr.ph.split.us
  %wide.trip.count97 = zext nneg i32 %depth to i64
  %wide.trip.count92 = zext nneg i32 %height to i64
  br label %for.cond3.preheader.us.us

for.cond3.preheader.us.us:                        ; preds = %for.cond3.preheader.us.us.preheader, %for.cond3.for.inc25_crit_edge.split.us.us.us
  %indvars.iv94 = phi i64 [ 0, %for.cond3.preheader.us.us.preheader ], [ %indvars.iv.next95, %for.cond3.for.inc25_crit_edge.split.us.us.us ]
  %mul.us.us = mul nsw i64 %src_zstride.addr.0, %indvars.iv94
  %2 = getelementptr i8, ptr %src, i64 %mul.us.us
  %mul10.us.us = mul nsw i64 %dst_zstride.addr.0, %indvars.iv94
  %3 = getelementptr i8, ptr %dst, i64 %mul10.us.us
  br label %for.body5.us.us.us

for.body5.us.us.us:                               ; preds = %for.body5.us.us.us, %for.cond3.preheader.us.us
  %indvars.iv89 = phi i64 [ %indvars.iv.next90, %for.body5.us.us.us ], [ 0, %for.cond3.preheader.us.us ]
  %mul8.us.us.us = mul nsw i64 %src_ystride.addr.0, %indvars.iv89
  %add.ptr.us.us.us = getelementptr i8, ptr %2, i64 %mul8.us.us.us
  %mul12.us.us.us = mul nsw i64 %dst_ystride.addr.0, %indvars.iv89
  %add.ptr14.us.us.us = getelementptr i8, ptr %3, i64 %mul12.us.us.us
  tail call void @llvm.memcpy.p0.p0.i64(ptr align 1 %add.ptr14.us.us.us, ptr align 1 %add.ptr.us.us.us, i64 %mul16, i1 false)
  %indvars.iv.next90 = add nuw nsw i64 %indvars.iv89, 1
  %exitcond93.not = icmp eq i64 %indvars.iv.next90, %wide.trip.count92
  br i1 %exitcond93.not, label %for.cond3.for.inc25_crit_edge.split.us.us.us, label %for.body5.us.us.us, !llvm.loop !83

for.cond3.for.inc25_crit_edge.split.us.us.us:     ; preds = %for.body5.us.us.us
  %indvars.iv.next95 = add nuw nsw i64 %indvars.iv94, 1
  %exitcond98.not = icmp eq i64 %indvars.iv.next95, %wide.trip.count97
  br i1 %exitcond98.not, label %for.end27, label %for.cond3.preheader.us.us, !llvm.loop !84

for.cond3.preheader.lr.ph.split.us.split:         ; preds = %for.cond3.preheader.lr.ph.split.us
  br i1 %cmp1847, label %for.cond3.preheader.us.us72.preheader, label %for.end27

for.cond3.preheader.us.us72.preheader:            ; preds = %for.cond3.preheader.lr.ph.split.us.split
  %wide.trip.count87 = zext nneg i32 %depth to i64
  %wide.trip.count = zext nneg i32 %height to i64
  br label %for.cond3.preheader.us.us72

for.cond3.preheader.us.us72:                      ; preds = %for.cond3.preheader.us.us72.preheader, %for.cond3.for.inc25_crit_edge.split.split.us.us.us
  %indvars.iv84 = phi i64 [ 0, %for.cond3.preheader.us.us72.preheader ], [ %indvars.iv.next85, %for.cond3.for.inc25_crit_edge.split.split.us.us.us ]
  %mul.us.us75 = mul nsw i64 %src_zstride.addr.0, %indvars.iv84
  %4 = getelementptr i8, ptr %src, i64 %mul.us.us75
  %mul10.us.us76 = mul nsw i64 %dst_zstride.addr.0, %indvars.iv84
  %5 = getelementptr i8, ptr %dst, i64 %mul10.us.us76
  br label %for.body5.us53.us.us

for.body5.us53.us.us:                             ; preds = %for.cond17.for.inc22.loopexit_crit_edge.us.us.us, %for.cond3.preheader.us.us72
  %indvars.iv = phi i64 [ %indvars.iv.next, %for.cond17.for.inc22.loopexit_crit_edge.us.us.us ], [ 0, %for.cond3.preheader.us.us72 ]
  %mul8.us56.us.us = mul nsw i64 %src_ystride.addr.0, %indvars.iv
  %add.ptr.us57.us.us = getelementptr i8, ptr %4, i64 %mul8.us56.us.us
  %mul12.us58.us.us = mul nsw i64 %dst_ystride.addr.0, %indvars.iv
  %add.ptr14.us59.us.us = getelementptr i8, ptr %5, i64 %mul12.us58.us.us
  br label %for.body19.us.us.us

for.body19.us.us.us:                              ; preds = %for.body19.us.us.us, %for.body5.us53.us.us
  %x.050.us.us.us = phi i32 [ 0, %for.body5.us53.us.us ], [ %inc.us.us.us, %for.body19.us.us.us ]
  %t.049.us.us.us = phi ptr [ %add.ptr14.us59.us.us, %for.body5.us53.us.us ], [ %add.ptr21.us.us.us, %for.body19.us.us.us ]
  %f.048.us.us.us = phi ptr [ %add.ptr.us57.us.us, %for.body5.us53.us.us ], [ %add.ptr20.us.us.us, %for.body19.us.us.us ]
  tail call void @llvm.memcpy.p0.p0.i64(ptr align 1 %t.049.us.us.us, ptr align 1 %f.048.us.us.us, i64 %pixelsize, i1 false)
  %add.ptr20.us.us.us = getelementptr inbounds i8, ptr %f.048.us.us.us, i64 %spec.select
  %add.ptr21.us.us.us = getelementptr inbounds i8, ptr %t.049.us.us.us, i64 %dst_xstride.addr.0
  %inc.us.us.us = add nuw nsw i32 %x.050.us.us.us, 1
  %exitcond.not = icmp eq i32 %inc.us.us.us, %width
  br i1 %exitcond.not, label %for.cond17.for.inc22.loopexit_crit_edge.us.us.us, label %for.body19.us.us.us, !llvm.loop !85

for.cond17.for.inc22.loopexit_crit_edge.us.us.us: ; preds = %for.body19.us.us.us
  %indvars.iv.next = add nuw nsw i64 %indvars.iv, 1
  %exitcond83.not = icmp eq i64 %indvars.iv.next, %wide.trip.count
  br i1 %exitcond83.not, label %for.cond3.for.inc25_crit_edge.split.split.us.us.us, label %for.body5.us53.us.us, !llvm.loop !83

for.cond3.for.inc25_crit_edge.split.split.us.us.us: ; preds = %for.cond17.for.inc22.loopexit_crit_edge.us.us.us
  %indvars.iv.next85 = add nuw nsw i64 %indvars.iv84, 1
  %exitcond88.not = icmp eq i64 %indvars.iv.next85, %wide.trip.count87
  br i1 %exitcond88.not, label %for.end27, label %for.cond3.preheader.us.us72, !llvm.loop !84

for.end27:                                        ; preds = %for.cond3.for.inc25_crit_edge.split.split.us.us.us, %for.cond3.for.inc25_crit_edge.split.us.us.us, %for.cond3.preheader.lr.ph.split.us.split, %for.cond3.preheader.lr.ph, %entry
  ret i1 true
}